target datalayout = "e-m:e-p270:32:32-p271:32:32-p272:64:64-i64:64-i128:128-f80:128-n8:16:32:64-S128"
target triple = "x86_64-pc-linux-gnu"

%struct._MRIStepInnerStepper = type { ptr, ptr, ptr, ptr, i32, i32, i32, double, double, ptr, ptr, i64, i64, i64, i64 }
%struct._MRIStepInnerStepper_Ops = type { ptr, ptr, ptr, ptr, ptr, ptr }

; Function Attrs: nounwind uwtable
define i32 @mriStepInnerStepper_GetAccumulatedError(ptr noundef %0, ptr noundef %1) #0 {
  %3 = alloca i32, align 4
  %4 = alloca ptr, align 8
  %5 = alloca ptr, align 8
  store ptr %0, ptr %4, align 8, !tbaa !11
  store ptr %1, ptr %5, align 8, !tbaa !125
  %6 = load ptr, ptr %4, align 8, !tbaa !11
  %7 = icmp eq ptr %6, null
  br i1 %7, label %8, label %9

8:                                                ; preds = %2
  store i32 -22, ptr %3, align 4
  br label %37

9:                                                ; preds = %2
  %10 = load ptr, ptr %4, align 8, !tbaa !11
  %11 = getelementptr inbounds nuw %struct._MRIStepInnerStepper, ptr %10, i32 0, i32 1
  %12 = load ptr, ptr %11, align 8, !tbaa !173
  %13 = icmp eq ptr %12, null
  br i1 %13, label %14, label %15

14:                                               ; preds = %9
  store i32 -22, ptr %3, align 4
  br label %37

15:                                               ; preds = %9
  %16 = load ptr, ptr %4, align 8, !tbaa !11
  %17 = getelementptr inbounds nuw %struct._MRIStepInnerStepper, ptr %16, i32 0, i32 1
  %18 = load ptr, ptr %17, align 8, !tbaa !173
  %19 = getelementptr inbounds nuw %struct._MRIStepInnerStepper_Ops, ptr %18, i32 0, i32 3
  %20 = load ptr, ptr %19, align 8, !tbaa !244
  %21 = icmp ne ptr %20, null
  br i1 %21, label %22, label %36

22:                                               ; preds = %15
  %23 = load ptr, ptr %4, align 8, !tbaa !11
  %24 = getelementptr inbounds nuw %struct._MRIStepInnerStepper, ptr %23, i32 0, i32 1
  %25 = load ptr, ptr %24, align 8, !tbaa !173
  %26 = getelementptr inbounds nuw %struct._MRIStepInnerStepper_Ops, ptr %25, i32 0, i32 3
  %27 = load ptr, ptr %26, align 8, !tbaa !244
  %28 = load ptr, ptr %4, align 8, !tbaa !11
  %29 = load ptr, ptr %5, align 8, !tbaa !125
  %30 = call i32 %27(ptr noundef %28, ptr noundef %29)
  %31 = load ptr, ptr %4, align 8, !tbaa !11
  %32 = getelementptr inbounds nuw %struct._MRIStepInnerStepper, ptr %31, i32 0, i32 6
  store i32 %30, ptr %32, align 8, !tbaa !229
  %33 = load ptr, ptr %4, align 8, !tbaa !11
  %34 = getelementptr inbounds nuw %struct._MRIStepInnerStepper, ptr %33, i32 0, i32 6
  %35 = load i32, ptr %34, align 8, !tbaa !229
  store i32 %35, ptr %3, align 4
  br label %37

36:                                               ; preds = %15
  store i32 -34, ptr %3, align 4
  br label %37

37:                                               ; preds = %36, %22, %14, %8
  %38 = load i32, ptr %3, align 4
  ret i32 %38
}