; Function Attrs: nounwind uwtable
define i32 @mriStepInnerStepper_GetAccumulatedError(ptr noundef %0, ptr noundef %1) local_unnamed_addr #0 {
  %3 = icmp eq ptr %0, null
  br i1 %3, label %14, label %4

4:                                                ; preds = %2
  %5 = getelementptr inbounds nuw i8, ptr %0, i64 8
  %6 = load ptr, ptr %5, align 8, !tbaa !103
  %7 = icmp eq ptr %6, null
  br i1 %7, label %14, label %8

8:                                                ; preds = %4
  %9 = getelementptr inbounds nuw i8, ptr %6, i64 24
  %10 = load ptr, ptr %9, align 8, !tbaa !162
  %.not = icmp eq ptr %10, null
  br i1 %.not, label %14, label %11

11:                                               ; preds = %8
  %12 = tail call i32 %10(ptr noundef nonnull %0, ptr noundef %1) #14
  %13 = getelementptr inbounds nuw i8, ptr %0, i64 40
  store i32 %12, ptr %13, align 8, !tbaa !166
  br label %14

14:                                               ; preds = %8, %4, %2, %11
  %.0 = phi i32 [ %12, %11 ], [ -22, %2 ], [ -22, %4 ], [ -34, %8 ]
  ret i32 %.0
}